; Function Attrs: mustprogress uwtable
define hidden void @_ZN2cv5utils7logging18LogTagConfigParserC2ERKNSt7__cxx1112basic_stringIcSt11char_traitsIcESaIcEEE(ptr noundef nonnull align 8 dereferenceable(168) %0, ptr noundef nonnull align 8 dereferenceable(32) %1) unnamed_addr #0 align 2 personality ptr @__gxx_personality_v0 {
  tail call void @_ZNSt7__cxx1112basic_stringIcSt11char_traitsIcESaIcEEC1Ev(ptr noundef nonnull align 8 dereferenceable(32) %0) #14
  %3 = getelementptr inbounds i8, ptr %0, i64 32
  tail call void @_ZNSt7__cxx1112basic_stringIcSt11char_traitsIcESaIcEEC1Ev(ptr noundef nonnull align 8 dereferenceable(32) %3) #14
  %4 = getelementptr inbounds i8, ptr %0, i64 64
  tail call void @llvm.memset.p0.i64(ptr noundef nonnull align 8 dereferenceable(7) %4, i8 0, i64 7, i1 false)
  %5 = getelementptr inbounds i8, ptr %0, i64 72
  tail call void @llvm.memset.p0.i64(ptr noundef nonnull align 8 dereferenceable(96) %5, i8 0, i64 96, i1 false)
  %6 = invoke noundef nonnull align 8 dereferenceable(32) ptr @_ZNSt7__cxx1112basic_stringIcSt11char_traitsIcESaIcEEaSERKS4_(ptr noundef nonnull align 8 dereferenceable(32) %0, ptr noundef nonnull align 8 dereferenceable(32) %1)
          to label %.noexc unwind label %8

.noexc:                                           ; preds = %2
  invoke void @_ZN2cv5utils7logging18LogTagConfigParser13segmentTokensEv(ptr noundef nonnull align 8 dereferenceable(168) %0)
          to label %7 unwind label %8

7:                                                ; preds = %.noexc
  ret void

8:                                                ; preds = %.noexc, %2
  %9 = landingpad { ptr, i32 }
          cleanup
  %10 = getelementptr inbounds i8, ptr %0, i64 144
  %11 = getelementptr inbounds i8, ptr %0, i64 120
  %12 = getelementptr inbounds i8, ptr %0, i64 96
  tail call void @_ZNSt6vectorINSt7__cxx1112basic_stringIcSt11char_traitsIcESaIcEEESaIS5_EED2Ev(ptr noundef nonnull align 8 dereferenceable(24) %10) #14
  tail call void @_ZNSt6vectorIN2cv5utils7logging12LogTagConfigESaIS3_EED2Ev(ptr noundef nonnull align 8 dereferenceable(24) %11) #14
  tail call void @_ZNSt6vectorIN2cv5utils7logging12LogTagConfigESaIS3_EED2Ev(ptr noundef nonnull align 8 dereferenceable(24) %12) #14
  tail call void @_ZNSt6vectorIN2cv5utils7logging12LogTagConfigESaIS3_EED2Ev(ptr noundef nonnull align 8 dereferenceable(24) %5) #14
  tail call void @_ZNSt7__cxx1112basic_stringIcSt11char_traitsIcESaIcEED1Ev(ptr noundef nonnull align 8 dereferenceable(32) %3) #14
  tail call void @_ZNSt7__cxx1112basic_stringIcSt11char_traitsIcESaIcEED1Ev(ptr noundef nonnull align 8 dereferenceable(32) %0) #14
  resume { ptr, i32 } %9
}